target datalayout = "e-m:e-p270:32:32-p271:32:32-p272:64:64-i64:64-i128:128-f80:128-n8:16:32:64-S128"
target triple = "x86_64-pc-linux-gnu"

%"class.boost::core::basic_string_view" = type { ptr, i64 }
%"class.boost::urls::url_view_base" = type { [8 x i8], %"struct.boost::urls::detail::url_impl", ptr }
%"struct.boost::urls::detail::url_impl" = type <{ ptr, [8 x i64], [7 x i64], i64, i64, [16 x i8], i16, [2 x i8], i32, i16, i8, [5 x i8] }>

; Function Attrs: inlinehint mustprogress nounwind uwtable
define linkonce_odr hidden noundef i64 @_ZN5boost4urls6detail11path_prefixEPKcm(ptr noundef %0, i64 noundef %1) #1 comdat {
  %3 = alloca i64, align 8
  %4 = alloca ptr, align 8
  %5 = alloca i64, align 8
  store ptr %0, ptr %4, align 8, !tbaa !7
  store i64 %1, ptr %5, align 8, !tbaa !21
  %6 = load i64, ptr %5, align 8, !tbaa !21
  switch i64 %6, label %37 [
    i64 0, label %7
    i64 1, label %8
    i64 2, label %16
  ]

7:                                                ; preds = %2
  store i64 0, ptr %3, align 8
  br label %72

8:                                                ; preds = %2
  %9 = load ptr, ptr %4, align 8, !tbaa !7
  %10 = getelementptr inbounds i8, ptr %9, i64 0
  %11 = load i8, ptr %10, align 1, !tbaa !32
  %12 = sext i8 %11 to i32
  %13 = icmp eq i32 %12, 47
  br i1 %13, label %14, label %15

14:                                               ; preds = %8
  store i64 1, ptr %3, align 8
  br label %72

15:                                               ; preds = %8
  store i64 0, ptr %3, align 8
  br label %72

16:                                               ; preds = %2
  %17 = load ptr, ptr %4, align 8, !tbaa !7
  %18 = getelementptr inbounds i8, ptr %17, i64 0
  %19 = load i8, ptr %18, align 1, !tbaa !32
  %20 = sext i8 %19 to i32
  %21 = icmp eq i32 %20, 47
  br i1 %21, label %22, label %23

22:                                               ; preds = %16
  store i64 1, ptr %3, align 8
  br label %72

23:                                               ; preds = %16
  %24 = load ptr, ptr %4, align 8, !tbaa !7
  %25 = getelementptr inbounds i8, ptr %24, i64 0
  %26 = load i8, ptr %25, align 1, !tbaa !32
  %27 = sext i8 %26 to i32
  %28 = icmp eq i32 %27, 46
  br i1 %28, label %29, label %36

29:                                               ; preds = %23
  %30 = load ptr, ptr %4, align 8, !tbaa !7
  %31 = getelementptr inbounds i8, ptr %30, i64 1
  %32 = load i8, ptr %31, align 1, !tbaa !32
  %33 = sext i8 %32 to i32
  %34 = icmp eq i32 %33, 47
  br i1 %34, label %35, label %36

35:                                               ; preds = %29
  store i64 2, ptr %3, align 8
  br label %72

36:                                               ; preds = %29, %23
  store i64 0, ptr %3, align 8
  br label %72

37:                                               ; preds = %2
  %38 = load ptr, ptr %4, align 8, !tbaa !7
  %39 = getelementptr inbounds i8, ptr %38, i64 0
  %40 = load i8, ptr %39, align 1, !tbaa !32
  %41 = sext i8 %40 to i32
  %42 = icmp eq i32 %41, 47
  br i1 %42, label %43, label %57

43:                                               ; preds = %37
  %44 = load ptr, ptr %4, align 8, !tbaa !7
  %45 = getelementptr inbounds i8, ptr %44, i64 1
  %46 = load i8, ptr %45, align 1, !tbaa !32
  %47 = sext i8 %46 to i32
  %48 = icmp eq i32 %47, 46
  br i1 %48, label %49, label %56

49:                                               ; preds = %43
  %50 = load ptr, ptr %4, align 8, !tbaa !7
  %51 = getelementptr inbounds i8, ptr %50, i64 2
  %52 = load i8, ptr %51, align 1, !tbaa !32
  %53 = sext i8 %52 to i32
  %54 = icmp eq i32 %53, 47
  br i1 %54, label %55, label %56

55:                                               ; preds = %49
  store i64 3, ptr %3, align 8
  br label %72

56:                                               ; preds = %49, %43
  store i64 1, ptr %3, align 8
  br label %72

57:                                               ; preds = %37
  %58 = load ptr, ptr %4, align 8, !tbaa !7
  %59 = getelementptr inbounds i8, ptr %58, i64 0
  %60 = load i8, ptr %59, align 1, !tbaa !32
  %61 = sext i8 %60 to i32
  %62 = icmp eq i32 %61, 46
  br i1 %62, label %63, label %70

63:                                               ; preds = %57
  %64 = load ptr, ptr %4, align 8, !tbaa !7
  %65 = getelementptr inbounds i8, ptr %64, i64 1
  %66 = load i8, ptr %65, align 1, !tbaa !32
  %67 = sext i8 %66 to i32
  %68 = icmp eq i32 %67, 47
  br i1 %68, label %69, label %70

69:                                               ; preds = %63
  store i64 2, ptr %3, align 8
  br label %72

70:                                               ; preds = %63, %57
  br label %71

71:                                               ; preds = %70
  store i64 0, ptr %3, align 8
  br label %72

72:                                               ; preds = %71, %69, %56, %55, %36, %35, %22, %15, %14, %7
  %73 = load i64, ptr %3, align 8
  ret i64 %73
}

; Function Attrs: mustprogress nounwind uwtable
define linkonce_odr hidden noundef i64 @_ZNK5boost4core17basic_string_viewIcE4sizeEv(ptr noundef nonnull align 8 dereferenceable(16) %0) #2 comdat align 2 {
  %2 = alloca ptr, align 8
  store ptr %0, ptr %2, align 8, !tbaa !7
  %3 = load ptr, ptr %2, align 8
  %4 = getelementptr inbounds nuw %"class.boost::core::basic_string_view", ptr %3, i32 0, i32 1
  %5 = load i64, ptr %4, align 8, !tbaa !60
  ret i64 %5
}

; Function Attrs: mustprogress nounwind uwtable
define linkonce_odr hidden noundef ptr @_ZNK5boost4core17basic_string_viewIcE4dataEv(ptr noundef nonnull align 8 dereferenceable(16) %0) #2 comdat align 2 {
  %2 = alloca ptr, align 8
  store ptr %0, ptr %2, align 8, !tbaa !7
  %3 = load ptr, ptr %2, align 8
  %4 = getelementptr inbounds nuw %"class.boost::core::basic_string_view", ptr %3, i32 0, i32 0
  %5 = load ptr, ptr %4, align 8, !tbaa !58
  ret ptr %5
}

; Function Attrs: mustprogress nounwind uwtable
define linkonce_odr hidden void @_ZN5boost4core17basic_string_viewIcEC2EPKcm(ptr noundef nonnull align 8 dereferenceable(16) %0, ptr noundef %1, i64 noundef %2) unnamed_addr #2 comdat align 2 {
  %4 = alloca ptr, align 8
  %5 = alloca ptr, align 8
  %6 = alloca i64, align 8
  store ptr %0, ptr %4, align 8, !tbaa !7
  store ptr %1, ptr %5, align 8, !tbaa !7
  store i64 %2, ptr %6, align 8, !tbaa !21
  %7 = load ptr, ptr %4, align 8
  %8 = getelementptr inbounds nuw %"class.boost::core::basic_string_view", ptr %7, i32 0, i32 0
  %9 = load ptr, ptr %5, align 8, !tbaa !7
  store ptr %9, ptr %8, align 8, !tbaa !58
  %10 = getelementptr inbounds nuw %"class.boost::core::basic_string_view", ptr %7, i32 0, i32 1
  %11 = load i64, ptr %6, align 8, !tbaa !21
  store i64 %11, ptr %10, align 8, !tbaa !60
  ret void
}

; Function Attrs: inlinehint mustprogress nounwind uwtable
define linkonce_odr hidden noundef i64 @_ZN5boost4urls6detail11path_prefixENS_4core17basic_string_viewIcEE(ptr %0, i64 %1) #1 comdat {
  %3 = alloca %"class.boost::core::basic_string_view", align 8
  %4 = getelementptr inbounds nuw { ptr, i64 }, ptr %3, i32 0, i32 0
  store ptr %0, ptr %4, align 8
  %5 = getelementptr inbounds nuw { ptr, i64 }, ptr %3, i32 0, i32 1
  store i64 %1, ptr %5, align 8
  %6 = call noundef ptr @_ZNK5boost4core17basic_string_viewIcE4dataEv(ptr noundef nonnull align 8 dereferenceable(16) %3) #9
  %7 = call noundef i64 @_ZNK5boost4core17basic_string_viewIcE4sizeEv(ptr noundef nonnull align 8 dereferenceable(16) %3) #9
  %8 = call noundef i64 @_ZN5boost4urls6detail11path_prefixEPKcm(ptr noundef %6, i64 noundef %7) #9
  ret i64 %8
}

; Function Attrs: mustprogress nounwind uwtable
define linkonce_odr hidden void @_ZN5boost4core17basic_string_viewIcEC2Ev(ptr noundef nonnull align 8 dereferenceable(16) %0) unnamed_addr #2 comdat align 2 {
  %2 = alloca ptr, align 8
  store ptr %0, ptr %2, align 8, !tbaa !7
  %3 = load ptr, ptr %2, align 8
  %4 = getelementptr inbounds nuw %"class.boost::core::basic_string_view", ptr %3, i32 0, i32 0
  store ptr null, ptr %4, align 8, !tbaa !58
  %5 = getelementptr inbounds nuw %"class.boost::core::basic_string_view", ptr %3, i32 0, i32 1
  store i64 0, ptr %5, align 8, !tbaa !60
  ret void
}

; Function Attrs: mustprogress nounwind uwtable
define { ptr, i64 } @_ZNK5boost4urls8url_base13first_segmentEv(ptr noundef nonnull align 8 dereferenceable(216) %0) #2 align 2 {
  %2 = alloca %"class.boost::core::basic_string_view", align 8
  %3 = alloca ptr, align 8
  %4 = alloca ptr, align 8
  %5 = alloca %"class.boost::core::basic_string_view", align 8
  %6 = alloca ptr, align 8
  %7 = alloca i32, align 4
  %8 = alloca ptr, align 8
  store ptr %0, ptr %3, align 8, !tbaa !7
  %9 = load ptr, ptr %3, align 8
  %10 = getelementptr inbounds i8, ptr %9, i64 8
  %11 = getelementptr inbounds nuw %"class.boost::urls::url_view_base", ptr %10, i32 0, i32 1
  %12 = getelementptr inbounds nuw %"struct.boost::urls::detail::url_impl", ptr %11, i32 0, i32 3
  %13 = load i64, ptr %12, align 8, !tbaa !52
  %14 = icmp eq i64 %13, 0
  br i1 %14, label %15, label %16

15:                                               ; preds = %1
  call void @_ZN5boost4core17basic_string_viewIcEC2Ev(ptr noundef nonnull align 8 dereferenceable(16) %2) #9
  br label %76

16:                                               ; preds = %1
  call void @llvm.lifetime.start.p0(i64 8, ptr %4) #9
  %17 = getelementptr inbounds i8, ptr %9, i64 8
  %18 = getelementptr inbounds nuw %"class.boost::urls::url_view_base", ptr %17, i32 0, i32 1
  %19 = getelementptr inbounds nuw %"struct.boost::urls::detail::url_impl", ptr %18, i32 0, i32 0
  %20 = load ptr, ptr %19, align 8, !tbaa !34
  %21 = getelementptr inbounds i8, ptr %9, i64 8
  %22 = getelementptr inbounds nuw %"class.boost::urls::url_view_base", ptr %21, i32 0, i32 1
  %23 = call noundef i64 @_ZNK5boost4urls6detail8url_impl6offsetEi(ptr noundef nonnull align 8 dereferenceable(171) %22, i32 noundef 4) #9
  %24 = getelementptr inbounds nuw i8, ptr %20, i64 %23
  %25 = getelementptr inbounds i8, ptr %9, i64 8
  %26 = getelementptr inbounds nuw %"class.boost::urls::url_view_base", ptr %25, i32 0, i32 1
  %27 = call { ptr, i64 } @_ZNK5boost4urls6detail8url_impl3getEi(ptr noundef nonnull align 8 dereferenceable(171) %26, i32 noundef 4) #9
  %28 = getelementptr inbounds nuw { ptr, i64 }, ptr %5, i32 0, i32 0
  %29 = extractvalue { ptr, i64 } %27, 0
  store ptr %29, ptr %28, align 8
  %30 = getelementptr inbounds nuw { ptr, i64 }, ptr %5, i32 0, i32 1
  %31 = extractvalue { ptr, i64 } %27, 1
  store i64 %31, ptr %30, align 8
  %32 = getelementptr inbounds nuw { ptr, i64 }, ptr %5, i32 0, i32 0
  %33 = load ptr, ptr %32, align 8
  %34 = getelementptr inbounds nuw { ptr, i64 }, ptr %5, i32 0, i32 1
  %35 = load i64, ptr %34, align 8
  %36 = call noundef i64 @_ZN5boost4urls6detail11path_prefixENS_4core17basic_string_viewIcEE(ptr %33, i64 %35) #9
  %37 = getelementptr inbounds nuw i8, ptr %24, i64 %36
  store ptr %37, ptr %4, align 8, !tbaa !7
  call void @llvm.lifetime.start.p0(i64 8, ptr %6) #9
  %38 = getelementptr inbounds i8, ptr %9, i64 8
  %39 = getelementptr inbounds nuw %"class.boost::urls::url_view_base", ptr %38, i32 0, i32 1
  %40 = getelementptr inbounds nuw %"struct.boost::urls::detail::url_impl", ptr %39, i32 0, i32 0
  %41 = load ptr, ptr %40, align 8, !tbaa !34
  %42 = getelementptr inbounds i8, ptr %9, i64 8
  %43 = getelementptr inbounds nuw %"class.boost::urls::url_view_base", ptr %42, i32 0, i32 1
  %44 = call noundef i64 @_ZNK5boost4urls6detail8url_impl6offsetEi(ptr noundef nonnull align 8 dereferenceable(171) %43, i32 noundef 5) #9
  %45 = getelementptr inbounds nuw i8, ptr %41, i64 %44
  store ptr %45, ptr %6, align 8, !tbaa !7
  %46 = getelementptr inbounds i8, ptr %9, i64 8
  %47 = getelementptr inbounds nuw %"class.boost::urls::url_view_base", ptr %46, i32 0, i32 1
  %48 = getelementptr inbounds nuw %"struct.boost::urls::detail::url_impl", ptr %47, i32 0, i32 3
  %49 = load i64, ptr %48, align 8, !tbaa !52
  %50 = icmp eq i64 %49, 1
  br i1 %50, label %51, label %58

51:                                               ; preds = %16
  %52 = load ptr, ptr %4, align 8, !tbaa !7
  %53 = load ptr, ptr %6, align 8, !tbaa !7
  %54 = load ptr, ptr %4, align 8, !tbaa !7
  %55 = ptrtoint ptr %53 to i64
  %56 = ptrtoint ptr %54 to i64
  %57 = sub i64 %55, %56
  call void @_ZN5boost4core17basic_string_viewIcEC2EPKcm(ptr noundef nonnull align 8 dereferenceable(16) %2, ptr noundef %52, i64 noundef %57) #9
  store i32 1, ptr %7, align 4
  br label %75

58:                                               ; preds = %16
  call void @llvm.lifetime.start.p0(i64 8, ptr %8) #9
  %59 = load ptr, ptr %4, align 8, !tbaa !7
  store ptr %59, ptr %8, align 8, !tbaa !7
  br label %60

60:                                               ; preds = %65, %58
  %61 = load ptr, ptr %8, align 8, !tbaa !7
  %62 = load i8, ptr %61, align 1, !tbaa !32
  %63 = sext i8 %62 to i32
  %64 = icmp ne i32 %63, 47
  br i1 %64, label %65, label %68

65:                                               ; preds = %60
  %66 = load ptr, ptr %8, align 8, !tbaa !7
  %67 = getelementptr inbounds nuw i8, ptr %66, i32 1
  store ptr %67, ptr %8, align 8, !tbaa !7
  br label %60, !llvm.loop !56

68:                                               ; preds = %60
  %69 = load ptr, ptr %4, align 8, !tbaa !7
  %70 = load ptr, ptr %8, align 8, !tbaa !7
  %71 = load ptr, ptr %4, align 8, !tbaa !7
  %72 = ptrtoint ptr %70 to i64
  %73 = ptrtoint ptr %71 to i64
  %74 = sub i64 %72, %73
  call void @_ZN5boost4core17basic_string_viewIcEC2EPKcm(ptr noundef nonnull align 8 dereferenceable(16) %2, ptr noundef %69, i64 noundef %74) #9
  store i32 1, ptr %7, align 4
  call void @llvm.lifetime.end.p0(i64 8, ptr %8) #9
  br label %75

75:                                               ; preds = %68, %51
  call void @llvm.lifetime.end.p0(i64 8, ptr %6) #9
  call void @llvm.lifetime.end.p0(i64 8, ptr %4) #9
  br label %76

76:                                               ; preds = %75, %15
  %77 = load { ptr, i64 }, ptr %2, align 8
  ret { ptr, i64 } %77
}