; Function Attrs: mustprogress nounwind uwtable
define { ptr, i64 } @_ZNK5boost4urls8url_base13first_segmentEv(ptr noundef nonnull align 8 dereferenceable(216) %0) local_unnamed_addr #6 align 2 {
  %2 = getelementptr inbounds i8, ptr %0, i64 144
  %3 = load i64, ptr %2, align 8, !tbaa !53
  %4 = icmp eq i64 %3, 0
  br i1 %4, label %55, label %5

5:                                                ; preds = %1
  %6 = getelementptr inbounds i8, ptr %0, i64 16
  %7 = load ptr, ptr %6, align 8, !tbaa !26
  %8 = tail call noundef i64 @_ZNK5boost4urls6detail8url_impl6offsetEi(ptr noundef nonnull align 8 dereferenceable(171) %6, i32 noundef 4) #30
  %9 = getelementptr inbounds nuw i8, ptr %7, i64 %8
  %10 = tail call { ptr, i64 } @_ZNK5boost4urls6detail8url_impl3getEi(ptr noundef nonnull align 8 dereferenceable(171) %6, i32 noundef 4) #30
  %11 = extractvalue { ptr, i64 } %10, 0
  %12 = extractvalue { ptr, i64 } %10, 1
  switch i64 %12, label %23 [
    i64 0, label %_ZN5boost4urls6detail11path_prefixENS_4core17basic_string_viewIcEE.exit
    i64 1, label %13
    i64 2, label %16
  ]

13:                                               ; preds = %5
  %14 = load i8, ptr %11, align 1, !tbaa !25
  %15 = icmp eq i8 %14, 47
  %..i.i = zext i1 %15 to i64
  br label %_ZN5boost4urls6detail11path_prefixENS_4core17basic_string_viewIcEE.exit

16:                                               ; preds = %5
  %17 = load i8, ptr %11, align 1, !tbaa !25
  switch i8 %17, label %22 [
    i8 47, label %_ZN5boost4urls6detail11path_prefixENS_4core17basic_string_viewIcEE.exit
    i8 46, label %18
  ]

18:                                               ; preds = %16
  %19 = getelementptr inbounds i8, ptr %11, i64 1
  %20 = load i8, ptr %19, align 1, !tbaa !25
  %21 = icmp eq i8 %20, 47
  br i1 %21, label %_ZN5boost4urls6detail11path_prefixENS_4core17basic_string_viewIcEE.exit, label %22

22:                                               ; preds = %18, %16
  br label %_ZN5boost4urls6detail11path_prefixENS_4core17basic_string_viewIcEE.exit

23:                                               ; preds = %5
  %24 = load i8, ptr %11, align 1, !tbaa !25
  switch i8 %24, label %38 [
    i8 47, label %25
    i8 46, label %34
  ]

25:                                               ; preds = %23
  %26 = getelementptr inbounds i8, ptr %11, i64 1
  %27 = load i8, ptr %26, align 1, !tbaa !25
  %28 = icmp eq i8 %27, 46
  br i1 %28, label %29, label %33

29:                                               ; preds = %25
  %30 = getelementptr inbounds i8, ptr %11, i64 2
  %31 = load i8, ptr %30, align 1, !tbaa !25
  %32 = icmp eq i8 %31, 47
  br i1 %32, label %_ZN5boost4urls6detail11path_prefixENS_4core17basic_string_viewIcEE.exit, label %33

33:                                               ; preds = %29, %25
  br label %_ZN5boost4urls6detail11path_prefixENS_4core17basic_string_viewIcEE.exit

34:                                               ; preds = %23
  %35 = getelementptr inbounds i8, ptr %11, i64 1
  %36 = load i8, ptr %35, align 1, !tbaa !25
  %37 = icmp eq i8 %36, 47
  br i1 %37, label %_ZN5boost4urls6detail11path_prefixENS_4core17basic_string_viewIcEE.exit, label %38

38:                                               ; preds = %34, %23
  br label %_ZN5boost4urls6detail11path_prefixENS_4core17basic_string_viewIcEE.exit

_ZN5boost4urls6detail11path_prefixENS_4core17basic_string_viewIcEE.exit: ; preds = %5, %13, %16, %18, %22, %29, %33, %34, %38
  %.0.i.i = phi i64 [ 1, %33 ], [ 0, %38 ], [ 0, %22 ], [ %12, %5 ], [ %..i.i, %13 ], [ 1, %16 ], [ 2, %18 ], [ 3, %29 ], [ 2, %34 ]
  %39 = getelementptr inbounds nuw i8, ptr %9, i64 %.0.i.i
  %40 = load ptr, ptr %6, align 8, !tbaa !26
  %41 = tail call noundef i64 @_ZNK5boost4urls6detail8url_impl6offsetEi(ptr noundef nonnull align 8 dereferenceable(171) %6, i32 noundef 5) #30
  %42 = load i64, ptr %2, align 8, !tbaa !53
  %43 = icmp eq i64 %42, 1
  br i1 %43, label %44, label %.preheader

44:                                               ; preds = %_ZN5boost4urls6detail11path_prefixENS_4core17basic_string_viewIcEE.exit
  %45 = getelementptr inbounds nuw i8, ptr %40, i64 %41
  %46 = ptrtoint ptr %45 to i64
  %47 = ptrtoint ptr %39 to i64
  %48 = sub i64 %46, %47
  br label %55

.preheader:                                       ; preds = %_ZN5boost4urls6detail11path_prefixENS_4core17basic_string_viewIcEE.exit, %.preheader
  %.0 = phi ptr [ %50, %.preheader ], [ %39, %_ZN5boost4urls6detail11path_prefixENS_4core17basic_string_viewIcEE.exit ]
  %49 = load i8, ptr %.0, align 1, !tbaa !25
  %.not = icmp eq i8 %49, 47
  %50 = getelementptr inbounds nuw i8, ptr %.0, i64 1
  br i1 %.not, label %51, label %.preheader, !llvm.loop !60

51:                                               ; preds = %.preheader
  %52 = ptrtoint ptr %.0 to i64
  %53 = ptrtoint ptr %39 to i64
  %54 = sub i64 %52, %53
  br label %55

55:                                               ; preds = %1, %44, %51
  %.sroa.0.0 = phi ptr [ %39, %44 ], [ %39, %51 ], [ null, %1 ]
  %.sroa.4.0 = phi i64 [ %48, %44 ], [ %54, %51 ], [ 0, %1 ]
  %.fca.0.insert = insertvalue { ptr, i64 } poison, ptr %.sroa.0.0, 0
  %.fca.1.insert = insertvalue { ptr, i64 } %.fca.0.insert, i64 %.sroa.4.0, 1
  ret { ptr, i64 } %.fca.1.insert
}